; Function Attrs: mustprogress nounwind uwtable
define internal noundef zeroext i1 @"_ZNSt17_Function_handlerIFvvEZN4llvm8parallel9TaskGroup5spawnESt8functionIS0_EbE3$_0E10_M_managerERSt9_Any_dataRKS8_St18_Manager_operation"(ptr nocapture noundef nonnull align 8 dereferenceable(16) %0, ptr nocapture noundef nonnull readonly align 8 dereferenceable(16) %1, i32 noundef %2) #0 align 2 {
  %.val = load ptr, ptr %1, align 8
  switch i32 %2, label %"_ZNSt14_Function_base13_Base_managerIZN4llvm8parallel9TaskGroup5spawnESt8functionIFvvEEbE3$_0E10_M_managerERSt9_Any_dataRKS9_St18_Manager_operation.exit" [
    i32 1, label %4
    i32 0, label %5
    i32 3, label %20
    i32 2, label %6
  ]

4:                                                ; preds = %3
  store ptr %.val, ptr %0, align 8
  br label %"_ZNSt14_Function_base13_Base_managerIZN4llvm8parallel9TaskGroup5spawnESt8functionIFvvEEbE3$_0E10_M_managerERSt9_Any_dataRKS9_St18_Manager_operation.exit"

5:                                                ; preds = %3
  store ptr null, ptr %0, align 8
  br label %"_ZNSt14_Function_base13_Base_managerIZN4llvm8parallel9TaskGroup5spawnESt8functionIFvvEEbE3$_0E10_M_managerERSt9_Any_dataRKS9_St18_Manager_operation.exit"

6:                                                ; preds = %3
  %7 = tail call noalias noundef nonnull dereferenceable(40) ptr @_Znwm(i64 noundef 40) #20
  %8 = getelementptr inbounds nuw i8, ptr %.val, i64 16
  tail call void @llvm.memset.p0.i64(ptr noundef nonnull align 8 dereferenceable(32) %7, i8 0, i64 32, i1 false)
  %9 = load ptr, ptr %8, align 8
  %.not.i.i.not.i.i.i.i.i = icmp eq ptr %9, null
  br i1 %.not.i.i.not.i.i.i.i.i, label %"_ZNSt14_Function_base13_Base_managerIZN4llvm8parallel9TaskGroup5spawnESt8functionIFvvEEbE3$_0E15_M_init_functorIRKS7_EEvRSt9_Any_dataOT_.exit.i", label %10

10:                                               ; preds = %6
  %11 = getelementptr inbounds nuw i8, ptr %7, i64 24
  %12 = getelementptr inbounds nuw i8, ptr %7, i64 16
  %13 = tail call noundef zeroext i1 %9(ptr noundef nonnull align 8 dereferenceable(16) %7, ptr noundef nonnull align 8 dereferenceable(16) %.val, i32 noundef 2) #18
  %14 = getelementptr inbounds nuw i8, ptr %.val, i64 24
  %15 = load ptr, ptr %14, align 8
  store ptr %15, ptr %11, align 8
  %16 = load ptr, ptr %8, align 8
  store ptr %16, ptr %12, align 8
  br label %"_ZNSt14_Function_base13_Base_managerIZN4llvm8parallel9TaskGroup5spawnESt8functionIFvvEEbE3$_0E15_M_init_functorIRKS7_EEvRSt9_Any_dataOT_.exit.i"

"_ZNSt14_Function_base13_Base_managerIZN4llvm8parallel9TaskGroup5spawnESt8functionIFvvEEbE3$_0E15_M_init_functorIRKS7_EEvRSt9_Any_dataOT_.exit.i": ; preds = %10, %6
  %17 = getelementptr inbounds nuw i8, ptr %7, i64 32
  %18 = getelementptr inbounds nuw i8, ptr %.val, i64 32
  %19 = load ptr, ptr %18, align 8
  store ptr %19, ptr %17, align 8
  store ptr %7, ptr %0, align 8
  br label %"_ZNSt14_Function_base13_Base_managerIZN4llvm8parallel9TaskGroup5spawnESt8functionIFvvEEbE3$_0E10_M_managerERSt9_Any_dataRKS9_St18_Manager_operation.exit"

20:                                               ; preds = %3
  %.val6.i = load ptr, ptr %0, align 8
  %21 = icmp eq ptr %.val6.i, null
  br i1 %21, label %"_ZNSt14_Function_base13_Base_managerIZN4llvm8parallel9TaskGroup5spawnESt8functionIFvvEEbE3$_0E10_M_managerERSt9_Any_dataRKS9_St18_Manager_operation.exit", label %22

22:                                               ; preds = %20
  %23 = getelementptr inbounds nuw i8, ptr %.val6.i, i64 16
  %24 = load ptr, ptr %23, align 8
  %.not.i.i.i.i.i = icmp eq ptr %24, null
  br i1 %.not.i.i.i.i.i, label %"_ZZN4llvm8parallel9TaskGroup5spawnESt8functionIFvvEEbEN3$_0D2Ev.exit.i.i", label %25

25:                                               ; preds = %22
  %26 = tail call noundef zeroext i1 %24(ptr noundef nonnull align 8 dereferenceable(16) %.val6.i, ptr noundef nonnull align 8 dereferenceable(16) %.val6.i, i32 noundef 3) #18
  br label %"_ZZN4llvm8parallel9TaskGroup5spawnESt8functionIFvvEEbEN3$_0D2Ev.exit.i.i"

"_ZZN4llvm8parallel9TaskGroup5spawnESt8functionIFvvEEbEN3$_0D2Ev.exit.i.i": ; preds = %25, %22
  tail call void @_ZdlPvm(ptr noundef nonnull %.val6.i, i64 noundef 40) #21
  br label %"_ZNSt14_Function_base13_Base_managerIZN4llvm8parallel9TaskGroup5spawnESt8functionIFvvEEbE3$_0E10_M_managerERSt9_Any_dataRKS9_St18_Manager_operation.exit"

"_ZNSt14_Function_base13_Base_managerIZN4llvm8parallel9TaskGroup5spawnESt8functionIFvvEEbE3$_0E10_M_managerERSt9_Any_dataRKS9_St18_Manager_operation.exit": ; preds = %3, %"_ZZN4llvm8parallel9TaskGroup5spawnESt8functionIFvvEEbEN3$_0D2Ev.exit.i.i", %20, %"_ZNSt14_Function_base13_Base_managerIZN4llvm8parallel9TaskGroup5spawnESt8functionIFvvEEbE3$_0E15_M_init_functorIRKS7_EEvRSt9_Any_dataOT_.exit.i", %5, %4
  ret i1 false
}